; Function Attrs: nounwind uwtable
define void @Tim_ManBlackBoxIoNum(ptr noundef %0, ptr noundef captures(none) initializes((0, 4)) %1, ptr noundef captures(none) initializes((0, 4)) %2) local_unnamed_addr #0 {
  store i32 0, ptr %2, align 4
  store i32 0, ptr %1, align 4
  %4 = load ptr, ptr %0, align 8
  %.not.i = icmp eq ptr %4, null
  br i1 %.not.i, label %.critedge, label %Tim_ManBoxNum.exit

Tim_ManBoxNum.exit:                               ; preds = %3
  %5 = getelementptr i8, ptr %4, i64 4
  %.val.i = load i32, ptr %5, align 4
  %6 = icmp sgt i32 %.val.i, 0
  br i1 %6, label %.lr.ph, label %.critedge

.lr.ph:                                           ; preds = %Tim_ManBoxNum.exit, %21
  %7 = phi ptr [ %22, %21 ], [ %4, %Tim_ManBoxNum.exit ]
  %indvars.iv = phi i64 [ %indvars.iv.next, %21 ], [ 0, %Tim_ManBoxNum.exit ]
  %8 = getelementptr i8, ptr %7, i64 8
  %.val15 = load ptr, ptr %8, align 8
  %9 = getelementptr inbounds nuw ptr, ptr %.val15, i64 %indvars.iv
  %10 = load ptr, ptr %9, align 8
  %11 = getelementptr inbounds nuw i8, ptr %10, i64 24
  %12 = load i32, ptr %11, align 4
  %.not14 = icmp eq i32 %12, 0
  br i1 %.not14, label %21, label %13

13:                                               ; preds = %.lr.ph
  %14 = trunc nuw nsw i64 %indvars.iv to i32
  %15 = tail call i32 @Tim_ManBoxInputNum(ptr noundef nonnull %0, i32 noundef %14) #18
  %16 = load i32, ptr %1, align 4
  %17 = add nsw i32 %16, %15
  store i32 %17, ptr %1, align 4
  %18 = tail call i32 @Tim_ManBoxOutputNum(ptr noundef nonnull %0, i32 noundef %14) #18
  %19 = load i32, ptr %2, align 4
  %20 = add nsw i32 %19, %18
  store i32 %20, ptr %2, align 4
  %.pre = load ptr, ptr %0, align 8
  br label %21

21:                                               ; preds = %.lr.ph, %13
  %22 = phi ptr [ %7, %.lr.ph ], [ %.pre, %13 ]
  %indvars.iv.next = add nuw nsw i64 %indvars.iv, 1
  %23 = getelementptr i8, ptr %22, i64 4
  %.val = load i32, ptr %23, align 4
  %24 = sext i32 %.val to i64
  %25 = icmp slt i64 %indvars.iv.next, %24
  br i1 %25, label %.lr.ph, label %.critedge, !llvm.loop !53

.critedge:                                        ; preds = %21, %3, %Tim_ManBoxNum.exit
  ret void
}